target datalayout = "e-m:e-p270:32:32-p271:32:32-p272:64:64-i64:64-i128:128-f80:128-n8:16:32:64-S128"
target triple = "x86_64-unknown-linux-gnu"

%struct.b2Vec2 = type { float, float }
%struct.b2JointUserData = type { i64 }
%class.b2Body = type { i32, i16, i32, %struct.b2Transform, %struct.b2Sweep, %struct.b2Vec2, float, %struct.b2Vec2, float, ptr, ptr, ptr, ptr, i32, ptr, ptr, float, float, float, float, float, float, float, float, %struct.b2BodyUserData }
%struct.b2Transform = type { %struct.b2Vec2, %struct.b2Rot }
%struct.b2Rot = type { float, float }
%struct.b2Sweep = type { %struct.b2Vec2, %struct.b2Vec2, %struct.b2Vec2, float, float, float }
%struct.b2BodyUserData = type { i64 }
%class.b2DistanceJoint = type <{ %class.b2Joint, float, float, float, float, float, float, %struct.b2Vec2, %struct.b2Vec2, float, float, float, float, i32, i32, %struct.b2Vec2, %struct.b2Vec2, %struct.b2Vec2, %struct.b2Vec2, %struct.b2Vec2, float, float, float, float, float, float, float, [4 x i8] }>
%class.b2Joint = type { ptr, i32, ptr, ptr, %struct.b2JointEdge, %struct.b2JointEdge, ptr, ptr, i32, i8, i8, %struct.b2JointUserData }
%struct.b2JointEdge = type { ptr, ptr, ptr, ptr }

; Function Attrs: mustprogress nounwind uwtable
define linkonce_odr hidden void @_ZN6b2Vec2C2Eff(ptr noundef nonnull align 4 dereferenceable(8) %this, float noundef %xIn, float noundef %yIn) unnamed_addr #2 comdat align 2 {
entry:
  %this.addr = alloca ptr, align 8
  %xIn.addr = alloca float, align 4
  %yIn.addr = alloca float, align 4
  store ptr %this, ptr %this.addr, align 8
  store float %xIn, ptr %xIn.addr, align 4
  store float %yIn, ptr %yIn.addr, align 4
  %this1 = load ptr, ptr %this.addr, align 8
  %x = getelementptr inbounds %struct.b2Vec2, ptr %this1, i32 0, i32 0
  %0 = load float, ptr %xIn.addr, align 4
  store float %0, ptr %x, align 4
  %y = getelementptr inbounds %struct.b2Vec2, ptr %this1, i32 0, i32 1
  %1 = load float, ptr %yIn.addr, align 4
  store float %1, ptr %y, align 4
  ret void
}

; Function Attrs: mustprogress uwtable
define linkonce_odr hidden <2 x float> @_Z5b2MulRK11b2TransformRK6b2Vec2(ptr noundef nonnull align 4 dereferenceable(16) %T, ptr noundef nonnull align 4 dereferenceable(8) %v) #0 comdat {
entry:
  %retval = alloca %struct.b2Vec2, align 4
  %T.addr = alloca ptr, align 8
  %v.addr = alloca ptr, align 8
  %x = alloca float, align 4
  %y5 = alloca float, align 4
  store ptr %T, ptr %T.addr, align 8
  store ptr %v, ptr %v.addr, align 8
  %0 = load ptr, ptr %T.addr, align 8
  %q = getelementptr inbounds %struct.b2Transform, ptr %0, i32 0, i32 1
  %c = getelementptr inbounds %struct.b2Rot, ptr %q, i32 0, i32 1
  %1 = load float, ptr %c, align 4
  %2 = load ptr, ptr %v.addr, align 8
  %x1 = getelementptr inbounds %struct.b2Vec2, ptr %2, i32 0, i32 0
  %3 = load float, ptr %x1, align 4
  %4 = load ptr, ptr %T.addr, align 8
  %q2 = getelementptr inbounds %struct.b2Transform, ptr %4, i32 0, i32 1
  %s = getelementptr inbounds %struct.b2Rot, ptr %q2, i32 0, i32 0
  %5 = load float, ptr %s, align 4
  %6 = load ptr, ptr %v.addr, align 8
  %y = getelementptr inbounds %struct.b2Vec2, ptr %6, i32 0, i32 1
  %7 = load float, ptr %y, align 4
  %mul3 = fmul float %5, %7
  %neg = fneg float %mul3
  %8 = call float @llvm.fmuladd.f32(float %1, float %3, float %neg)
  %9 = load ptr, ptr %T.addr, align 8
  %p = getelementptr inbounds %struct.b2Transform, ptr %9, i32 0, i32 0
  %x4 = getelementptr inbounds %struct.b2Vec2, ptr %p, i32 0, i32 0
  %10 = load float, ptr %x4, align 4
  %add = fadd float %8, %10
  store float %add, ptr %x, align 4
  %11 = load ptr, ptr %T.addr, align 8
  %q6 = getelementptr inbounds %struct.b2Transform, ptr %11, i32 0, i32 1
  %s7 = getelementptr inbounds %struct.b2Rot, ptr %q6, i32 0, i32 0
  %12 = load float, ptr %s7, align 4
  %13 = load ptr, ptr %v.addr, align 8
  %x8 = getelementptr inbounds %struct.b2Vec2, ptr %13, i32 0, i32 0
  %14 = load float, ptr %x8, align 4
  %15 = load ptr, ptr %T.addr, align 8
  %q9 = getelementptr inbounds %struct.b2Transform, ptr %15, i32 0, i32 1
  %c10 = getelementptr inbounds %struct.b2Rot, ptr %q9, i32 0, i32 1
  %16 = load float, ptr %c10, align 4
  %17 = load ptr, ptr %v.addr, align 8
  %y11 = getelementptr inbounds %struct.b2Vec2, ptr %17, i32 0, i32 1
  %18 = load float, ptr %y11, align 4
  %mul12 = fmul float %16, %18
  %19 = call float @llvm.fmuladd.f32(float %12, float %14, float %mul12)
  %20 = load ptr, ptr %T.addr, align 8
  %p13 = getelementptr inbounds %struct.b2Transform, ptr %20, i32 0, i32 0
  %y14 = getelementptr inbounds %struct.b2Vec2, ptr %p13, i32 0, i32 1
  %21 = load float, ptr %y14, align 4
  %add15 = fadd float %19, %21
  store float %add15, ptr %y5, align 4
  %22 = load float, ptr %x, align 4
  %23 = load float, ptr %y5, align 4
  call void @_ZN6b2Vec2C2Eff(ptr noundef nonnull align 4 dereferenceable(8) %retval, float noundef %22, float noundef %23)
  %24 = load <2 x float>, ptr %retval, align 4
  ret <2 x float> %24
}

; Function Attrs: mustprogress uwtable
define linkonce_odr hidden <2 x float> @_ZNK6b2Body13GetWorldPointERK6b2Vec2(ptr noundef nonnull align 8 dereferenceable(184) %this, ptr noundef nonnull align 4 dereferenceable(8) %localPoint) #0 comdat align 2 {
entry:
  %retval = alloca %struct.b2Vec2, align 4
  %this.addr = alloca ptr, align 8
  %localPoint.addr = alloca ptr, align 8
  store ptr %this, ptr %this.addr, align 8
  store ptr %localPoint, ptr %localPoint.addr, align 8
  %this1 = load ptr, ptr %this.addr, align 8
  %m_xf = getelementptr inbounds %class.b2Body, ptr %this1, i32 0, i32 3
  %0 = load ptr, ptr %localPoint.addr, align 8
  %call = call <2 x float> @_Z5b2MulRK11b2TransformRK6b2Vec2(ptr noundef nonnull align 4 dereferenceable(16) %m_xf, ptr noundef nonnull align 4 dereferenceable(8) %0)
  store <2 x float> %call, ptr %retval, align 4
  %1 = load <2 x float>, ptr %retval, align 4
  ret <2 x float> %1
}

; Function Attrs: mustprogress uwtable
define <2 x float> @_ZNK15b2DistanceJoint10GetAnchorAEv(ptr noundef nonnull align 8 dereferenceable(260) %this) unnamed_addr #0 align 2 {
entry:
  %retval = alloca %struct.b2Vec2, align 4
  %this.addr = alloca ptr, align 8
  store ptr %this, ptr %this.addr, align 8
  %this1 = load ptr, ptr %this.addr, align 8
  %m_bodyA = getelementptr inbounds %class.b2Joint, ptr %this1, i32 0, i32 6
  %0 = load ptr, ptr %m_bodyA, align 8
  %m_localAnchorA = getelementptr inbounds %class.b2DistanceJoint, ptr %this1, i32 0, i32 7
  %call = call <2 x float> @_ZNK6b2Body13GetWorldPointERK6b2Vec2(ptr noundef nonnull align 8 dereferenceable(184) %0, ptr noundef nonnull align 4 dereferenceable(8) %m_localAnchorA)
  store <2 x float> %call, ptr %retval, align 4
  %1 = load <2 x float>, ptr %retval, align 4
  ret <2 x float> %1
}